target datalayout = "e-m:e-p270:32:32-p271:32:32-p272:64:64-i64:64-i128:128-f80:128-n8:16:32:64-S128"
target triple = "x86_64-pc-linux-gnu"

%struct._zval_struct = type { %union._zend_value, %union.anon, %union.anon.2 }
%union._zend_value = type { i64 }
%union.anon = type { i32 }
%union.anon.2 = type { i32 }
%struct.group = type { ptr, ptr, i32, ptr }

@.str.17 = private unnamed_addr constant [5 x i8] c"name\00", align 1
@.str.18 = private unnamed_addr constant [7 x i8] c"passwd\00", align 1
@.str.19 = private unnamed_addr constant [8 x i8] c"members\00", align 1
@.str.20 = private unnamed_addr constant [4 x i8] c"gid\00", align 1

; Function Attrs: nounwind uwtable
define hidden i32 @php_posix_group_to_array(ptr noundef %0, ptr noundef %1) #0 {
  %3 = alloca ptr, align 8
  %4 = alloca ptr, align 8
  %5 = alloca ptr, align 8
  %6 = alloca ptr, align 8
  %7 = alloca ptr, align 8
  %8 = alloca i64, align 8
  %9 = alloca ptr, align 8
  %10 = alloca ptr, align 8
  %11 = alloca ptr, align 8
  %12 = alloca ptr, align 8
  %13 = alloca ptr, align 8
  %14 = alloca ptr, align 8
  %15 = alloca i32, align 4
  %16 = alloca ptr, align 8
  %17 = alloca ptr, align 8
  %18 = alloca %struct._zval_struct, align 8
  %19 = alloca i32, align 4
  %20 = alloca ptr, align 8
  %21 = alloca ptr, align 8
  %22 = alloca ptr, align 8
  store ptr %0, ptr %16, align 8
  store ptr %1, ptr %17, align 8
  %23 = load ptr, ptr %16, align 8
  %24 = icmp eq ptr null, %23
  br i1 %24, label %25, label %26

25:                                               ; preds = %2
  store i32 0, ptr %15, align 4
  br label %107

26:                                               ; preds = %2
  %27 = load ptr, ptr %17, align 8
  %28 = icmp eq ptr %27, null
  br i1 %28, label %36, label %29

29:                                               ; preds = %26
  %30 = load ptr, ptr %17, align 8
  store ptr %30, ptr %5, align 8
  %31 = load ptr, ptr %5, align 8
  %32 = getelementptr inbounds %struct._zval_struct, ptr %31, i32 0, i32 1
  %33 = load i8, ptr %32, align 8
  %34 = zext i8 %33 to i32
  %35 = icmp ne i32 %34, 7
  br i1 %35, label %36, label %37

36:                                               ; preds = %29, %26
  store i32 0, ptr %15, align 4
  br label %107

37:                                               ; preds = %29
  br label %38

38:                                               ; preds = %37
  %39 = call ptr @_zend_new_array_0()
  store ptr %39, ptr %20, align 8
  store ptr %18, ptr %21, align 8
  %40 = load ptr, ptr %20, align 8
  %41 = load ptr, ptr %21, align 8
  %42 = getelementptr inbounds %struct._zval_struct, ptr %41, i32 0, i32 0
  store ptr %40, ptr %42, align 8
  %43 = load ptr, ptr %21, align 8
  %44 = getelementptr inbounds %struct._zval_struct, ptr %43, i32 0, i32 1
  store i32 775, ptr %44, align 8
  br label %45

45:                                               ; preds = %38
  %46 = load ptr, ptr %17, align 8
  %47 = load ptr, ptr %16, align 8
  %48 = getelementptr inbounds %struct.group, ptr %47, i32 0, i32 0
  %49 = load ptr, ptr %48, align 8
  store ptr %46, ptr %9, align 8
  store ptr @.str.17, ptr %10, align 8
  store ptr %49, ptr %11, align 8
  %50 = load ptr, ptr %9, align 8
  %51 = load ptr, ptr %10, align 8
  %52 = load ptr, ptr %10, align 8
  %53 = call i64 @strlen(ptr noundef %52) #12
  %54 = load ptr, ptr %11, align 8
  call void @add_assoc_string_ex(ptr noundef %50, ptr noundef %51, i64 noundef %53, ptr noundef %54) #9
  %55 = load ptr, ptr %16, align 8
  %56 = getelementptr inbounds %struct.group, ptr %55, i32 0, i32 1
  %57 = load ptr, ptr %56, align 8
  %58 = icmp ne ptr %57, null
  br i1 %58, label %59, label %69

59:                                               ; preds = %45
  %60 = load ptr, ptr %17, align 8
  %61 = load ptr, ptr %16, align 8
  %62 = getelementptr inbounds %struct.group, ptr %61, i32 0, i32 1
  %63 = load ptr, ptr %62, align 8
  store ptr %60, ptr %12, align 8
  store ptr @.str.18, ptr %13, align 8
  store ptr %63, ptr %14, align 8
  %64 = load ptr, ptr %12, align 8
  %65 = load ptr, ptr %13, align 8
  %66 = load ptr, ptr %13, align 8
  %67 = call i64 @strlen(ptr noundef %66) #12
  %68 = load ptr, ptr %14, align 8
  call void @add_assoc_string_ex(ptr noundef %64, ptr noundef %65, i64 noundef %67, ptr noundef %68) #9
  br label %75

69:                                               ; preds = %45
  %70 = load ptr, ptr %17, align 8
  store ptr %70, ptr %3, align 8
  store ptr @.str.18, ptr %4, align 8
  %71 = load ptr, ptr %3, align 8
  %72 = load ptr, ptr %4, align 8
  %73 = load ptr, ptr %4, align 8
  %74 = call i64 @strlen(ptr noundef %73) #12
  call void @add_assoc_null_ex(ptr noundef %71, ptr noundef %72, i64 noundef %74) #9
  br label %75

75:                                               ; preds = %69, %59
  store i32 0, ptr %19, align 4
  br label %76

76:                                               ; preds = %89, %75
  %77 = load ptr, ptr %16, align 8
  %78 = getelementptr inbounds %struct.group, ptr %77, i32 0, i32 3
  %79 = load ptr, ptr %78, align 8
  %80 = load i32, ptr %19, align 4
  %81 = sext i32 %80 to i64
  %82 = getelementptr inbounds ptr, ptr %79, i64 %81
  call void @llvm.memcpy.p0.p0.i64(ptr align 8 %22, ptr align 8 %82, i64 8, i1 false)
  %83 = load ptr, ptr %22, align 8
  %84 = icmp ne ptr %83, null
  br i1 %84, label %86, label %85

85:                                               ; preds = %76
  br label %92

86:                                               ; preds = %76
  %87 = load ptr, ptr %22, align 8
  %88 = call i32 @add_next_index_string(ptr noundef %18, ptr noundef %87)
  br label %89

89:                                               ; preds = %86
  %90 = load i32, ptr %19, align 4
  %91 = add nsw i32 %90, 1
  store i32 %91, ptr %19, align 4
  br label %76

92:                                               ; preds = %85
  %93 = load ptr, ptr %17, align 8
  %94 = getelementptr inbounds %struct._zval_struct, ptr %93, i32 0, i32 0
  %95 = load ptr, ptr %94, align 8
  %96 = call ptr @zend_hash_str_update(ptr noundef %95, ptr noundef @.str.19, i64 noundef 7, ptr noundef %18)
  %97 = load ptr, ptr %17, align 8
  %98 = load ptr, ptr %16, align 8
  %99 = getelementptr inbounds %struct.group, ptr %98, i32 0, i32 2
  %100 = load i32, ptr %99, align 8
  %101 = zext i32 %100 to i64
  store ptr %97, ptr %6, align 8
  store ptr @.str.20, ptr %7, align 8
  store i64 %101, ptr %8, align 8
  %102 = load ptr, ptr %6, align 8
  %103 = load ptr, ptr %7, align 8
  %104 = load ptr, ptr %7, align 8
  %105 = call i64 @strlen(ptr noundef %104) #12
  %106 = load i64, ptr %8, align 8
  call void @add_assoc_long_ex(ptr noundef %102, ptr noundef %103, i64 noundef %105, i64 noundef %106) #9
  store i32 1, ptr %15, align 4
  br label %107

107:                                              ; preds = %92, %36, %25
  %108 = load i32, ptr %15, align 4
  ret i32 %108
}