; Function Attrs: nounwind uwtable
define hidden noundef i32 @php_posix_group_to_array(ptr noundef readonly %0, ptr noundef %1) local_unnamed_addr #0 {
  %3 = alloca %struct._zval_struct, align 8
  %4 = icmp eq ptr %0, null
  %5 = icmp eq ptr %1, null
  %or.cond = or i1 %4, %5
  br i1 %or.cond, label %28, label %6

6:                                                ; preds = %2
  %7 = getelementptr inbounds i8, ptr %1, i64 8
  %8 = load i8, ptr %7, align 8
  %.not = icmp eq i8 %8, 7
  br i1 %.not, label %9, label %28

9:                                                ; preds = %6
  %10 = tail call ptr @_zend_new_array_0() #11
  store ptr %10, ptr %3, align 8
  %11 = getelementptr inbounds i8, ptr %3, i64 8
  store i32 775, ptr %11, align 8
  %12 = load ptr, ptr %0, align 8
  tail call void @add_assoc_string_ex(ptr noundef nonnull %1, ptr noundef nonnull @.str.17, i64 noundef 4, ptr noundef %12) #11
  %13 = getelementptr inbounds i8, ptr %0, i64 8
  %14 = load ptr, ptr %13, align 8
  %.not40 = icmp eq ptr %14, null
  br i1 %.not40, label %16, label %15

15:                                               ; preds = %9
  tail call void @add_assoc_string_ex(ptr noundef nonnull %1, ptr noundef nonnull @.str.18, i64 noundef 6, ptr noundef nonnull %14) #11
  br label %17

16:                                               ; preds = %9
  tail call void @add_assoc_null_ex(ptr noundef nonnull %1, ptr noundef nonnull @.str.18, i64 noundef 6) #11
  br label %17

17:                                               ; preds = %16, %15
  %18 = getelementptr inbounds i8, ptr %0, i64 24
  %19 = load ptr, ptr %18, align 8
  %.0.copyload42 = load ptr, ptr %19, align 8
  %.not4143 = icmp eq ptr %.0.copyload42, null
  br i1 %.not4143, label %._crit_edge, label %.lr.ph

.lr.ph:                                           ; preds = %17, %.lr.ph
  %indvars.iv = phi i64 [ %indvars.iv.next, %.lr.ph ], [ 0, %17 ]
  %.0.copyload45 = phi ptr [ %.0.copyload, %.lr.ph ], [ %.0.copyload42, %17 ]
  %20 = call i32 @add_next_index_string(ptr noundef nonnull %3, ptr noundef nonnull %.0.copyload45) #11
  %indvars.iv.next = add nuw nsw i64 %indvars.iv, 1
  %21 = load ptr, ptr %18, align 8
  %22 = getelementptr inbounds ptr, ptr %21, i64 %indvars.iv.next
  %.0.copyload = load ptr, ptr %22, align 8
  %.not41 = icmp eq ptr %.0.copyload, null
  br i1 %.not41, label %._crit_edge, label %.lr.ph

._crit_edge:                                      ; preds = %.lr.ph, %17
  %23 = load ptr, ptr %1, align 8
  %24 = call ptr @zend_hash_str_update(ptr noundef %23, ptr noundef nonnull @.str.19, i64 noundef 7, ptr noundef nonnull %3) #11
  %25 = getelementptr inbounds i8, ptr %0, i64 16
  %26 = load i32, ptr %25, align 8
  %27 = zext i32 %26 to i64
  call void @add_assoc_long_ex(ptr noundef nonnull %1, ptr noundef nonnull @.str.20, i64 noundef 3, i64 noundef %27) #11
  br label %28

28:                                               ; preds = %6, %2, %._crit_edge
  %.0 = phi i32 [ 1, %._crit_edge ], [ 0, %2 ], [ 0, %6 ]
  ret i32 %.0
}